target datalayout = "e-m:e-p270:32:32-p271:32:32-p272:64:64-i64:64-i128:128-f80:128-n8:16:32:64-S128"
target triple = "x86_64-pc-linux-gnu"

%struct.Query = type { i32, i32, i32, i64, i8, ptr, i32, i8, i8, i8, i8, i8, i8, i8, i8, i8, i8, i8, ptr, ptr, ptr, ptr, ptr, i32, ptr, ptr, i32, ptr, ptr, ptr, ptr, ptr, i8, ptr, ptr, ptr, ptr, ptr, ptr, ptr, i32, ptr, ptr, ptr, ptr, i32, i32 }
%struct.Node = type { i32 }
%struct.Expr = type { i32 }
%struct.SubLink = type { %struct.Expr, i32, i32, ptr, ptr, ptr, i32 }
%struct.fireRIRonSubLink_context = type { ptr, i8 }

; Function Attrs: nounwind uwtable
define internal zeroext i1 @fireRIRonSubLink(ptr noundef %0, ptr noundef %1) #0 {
  %3 = alloca i1, align 1
  %4 = alloca ptr, align 8
  %5 = alloca ptr, align 8
  %6 = alloca ptr, align 8
  store ptr %0, ptr %4, align 8
  store ptr %1, ptr %5, align 8
  %7 = load ptr, ptr %4, align 8
  %8 = icmp eq ptr %7, null
  br i1 %8, label %9, label %10

9:                                                ; preds = %2
  store i1 false, ptr %3, align 1
  br label %45

10:                                               ; preds = %2
  %11 = load ptr, ptr %4, align 8
  %12 = getelementptr inbounds nuw %struct.Node, ptr %11, i32 0, i32 0
  %13 = load i32, ptr %12, align 4
  %14 = icmp eq i32 %13, 22
  br i1 %14, label %15, label %41

15:                                               ; preds = %10
  call void @llvm.lifetime.start.p0(i64 8, ptr %6) #9
  %16 = load ptr, ptr %4, align 8
  store ptr %16, ptr %6, align 8
  %17 = load ptr, ptr %6, align 8
  %18 = getelementptr inbounds nuw %struct.SubLink, ptr %17, i32 0, i32 5
  %19 = load ptr, ptr %18, align 8
  %20 = load ptr, ptr %5, align 8
  %21 = getelementptr inbounds nuw %struct.fireRIRonSubLink_context, ptr %20, i32 0, i32 0
  %22 = load ptr, ptr %21, align 8
  %23 = call ptr @fireRIRrules(ptr noundef %19, ptr noundef %22)
  %24 = load ptr, ptr %6, align 8
  %25 = getelementptr inbounds nuw %struct.SubLink, ptr %24, i32 0, i32 5
  store ptr %23, ptr %25, align 8
  %26 = load ptr, ptr %6, align 8
  %27 = getelementptr inbounds nuw %struct.SubLink, ptr %26, i32 0, i32 5
  %28 = load ptr, ptr %27, align 8
  %29 = getelementptr inbounds nuw %struct.Query, ptr %28, i32 0, i32 15
  %30 = load i8, ptr %29, align 4, !range !4, !noundef !5
  %31 = trunc i8 %30 to i1
  %32 = zext i1 %31 to i32
  %33 = load ptr, ptr %5, align 8
  %34 = getelementptr inbounds nuw %struct.fireRIRonSubLink_context, ptr %33, i32 0, i32 1
  %35 = load i8, ptr %34, align 8, !range !4, !noundef !5
  %36 = trunc i8 %35 to i1
  %37 = zext i1 %36 to i32
  %38 = or i32 %37, %32
  %39 = icmp ne i32 %38, 0
  %40 = zext i1 %39 to i8
  store i8 %40, ptr %34, align 8
  call void @llvm.lifetime.end.p0(i64 8, ptr %6) #9
  br label %41

41:                                               ; preds = %15, %10
  %42 = load ptr, ptr %4, align 8
  %43 = load ptr, ptr %5, align 8
  %44 = call zeroext i1 @expression_tree_walker_impl(ptr noundef %42, ptr noundef @fireRIRonSubLink, ptr noundef %43)
  store i1 %44, ptr %3, align 1
  br label %45

45:                                               ; preds = %41, %9
  %46 = load i1, ptr %3, align 1
  ret i1 %46
}