; Function Attrs: nounwind uwtable
define internal zeroext i1 @fireRIRonSubLink(ptr noundef %0, ptr noundef %1) #0 {
  %3 = icmp eq ptr %0, null
  br i1 %3, label %19, label %4

4:                                                ; preds = %2
  %5 = load i32, ptr %0, align 4
  %6 = icmp eq i32 %5, 22
  br i1 %6, label %7, label %17

7:                                                ; preds = %4
  %8 = getelementptr inbounds nuw i8, ptr %0, i64 32
  %9 = load ptr, ptr %8, align 8
  %10 = load ptr, ptr %1, align 8
  %11 = tail call fastcc ptr @fireRIRrules(ptr noundef %9, ptr noundef %10)
  store ptr %11, ptr %8, align 8
  %12 = getelementptr inbounds nuw i8, ptr %11, i64 52
  %13 = load i8, ptr %12, align 4, !range !4, !noundef !5
  %14 = getelementptr inbounds nuw i8, ptr %1, i64 8
  %15 = load i8, ptr %14, align 8, !range !4, !noundef !5
  %16 = or i8 %15, %13
  store i8 %16, ptr %14, align 8
  br label %17

17:                                               ; preds = %7, %4
  %18 = tail call zeroext i1 @expression_tree_walker_impl(ptr noundef nonnull %0, ptr noundef nonnull @fireRIRonSubLink, ptr noundef %1) #10
  br label %19

19:                                               ; preds = %2, %17
  %.0 = phi i1 [ %18, %17 ], [ false, %2 ]
  ret i1 %.0
}